target datalayout = "e-m:e-p270:32:32-p271:32:32-p272:64:64-i64:64-i128:128-f80:128-n8:16:32:64-S128"
target triple = "x86_64-pc-linux-gnu"

%struct.SDL_TimerData = type { %struct.SDL_InitState, ptr, ptr, ptr, [128 x i8], i32, ptr, ptr, ptr, %struct.SDL_AtomicInt, ptr }
%struct.SDL_InitState = type { %struct.SDL_AtomicInt, i64, ptr }
%struct.SDL_AtomicInt = type { i32 }
%struct.SDL_Timer = type { i32, ptr, ptr, ptr, i64, i64, %struct.SDL_AtomicInt, ptr }
%struct.SDL_TimerMap = type { i32, ptr, ptr }

@SDL_timer_data = internal global %struct.SDL_TimerData zeroinitializer, align 8
@.str.1 = private unnamed_addr constant [26 x i8] c"Parameter '%s' is invalid\00", align 1
@.str.2 = private unnamed_addr constant [3 x i8] c"id\00", align 1
@.str.3 = private unnamed_addr constant [16 x i8] c"Timer not found\00", align 1

; Function Attrs: nounwind uwtable
define hidden zeroext i1 @SDL_RemoveTimer_REAL(i32 noundef %0) #0 {
  %2 = alloca i1, align 1
  %3 = alloca i32, align 4
  %4 = alloca ptr, align 8
  %5 = alloca ptr, align 8
  %6 = alloca ptr, align 8
  %7 = alloca i8, align 1
  %8 = alloca i32, align 4
  store i32 %0, ptr %3, align 4
  call void @llvm.lifetime.start.p0(i64 8, ptr %4) #3
  store ptr @SDL_timer_data, ptr %4, align 8
  call void @llvm.lifetime.start.p0(i64 8, ptr %5) #3
  call void @llvm.lifetime.start.p0(i64 8, ptr %6) #3
  call void @llvm.lifetime.start.p0(i64 1, ptr %7) #3
  store i8 0, ptr %7, align 1
  %9 = load i32, ptr %3, align 4
  %10 = icmp ne i32 %9, 0
  br i1 %10, label %13, label %11

11:                                               ; preds = %1
  %12 = call zeroext i1 (ptr, ...) @SDL_SetError_REAL(ptr noundef @.str.1, ptr noundef @.str.2)
  store i1 %12, ptr %2, align 1
  store i32 1, ptr %8, align 4
  br label %78

13:                                               ; preds = %1
  %14 = load ptr, ptr %4, align 8
  %15 = getelementptr inbounds nuw %struct.SDL_TimerData, ptr %14, i32 0, i32 3
  %16 = load ptr, ptr %15, align 8
  call void @SDL_LockMutex_REAL(ptr noundef %16)
  store ptr null, ptr %5, align 8
  %17 = load ptr, ptr %4, align 8
  %18 = getelementptr inbounds nuw %struct.SDL_TimerData, ptr %17, i32 0, i32 2
  %19 = load ptr, ptr %18, align 8
  store ptr %19, ptr %6, align 8
  br label %20

20:                                               ; preds = %46, %13
  %21 = load ptr, ptr %6, align 8
  %22 = icmp ne ptr %21, null
  br i1 %22, label %23, label %51

23:                                               ; preds = %20
  %24 = load ptr, ptr %6, align 8
  %25 = getelementptr inbounds nuw %struct.SDL_TimerMap, ptr %24, i32 0, i32 0
  %26 = load i32, ptr %25, align 8
  %27 = load i32, ptr %3, align 4
  %28 = icmp eq i32 %26, %27
  br i1 %28, label %29, label %45

29:                                               ; preds = %23
  %30 = load ptr, ptr %5, align 8
  %31 = icmp ne ptr %30, null
  br i1 %31, label %32, label %38

32:                                               ; preds = %29
  %33 = load ptr, ptr %6, align 8
  %34 = getelementptr inbounds nuw %struct.SDL_TimerMap, ptr %33, i32 0, i32 2
  %35 = load ptr, ptr %34, align 8
  %36 = load ptr, ptr %5, align 8
  %37 = getelementptr inbounds nuw %struct.SDL_TimerMap, ptr %36, i32 0, i32 2
  store ptr %35, ptr %37, align 8
  br label %44

38:                                               ; preds = %29
  %39 = load ptr, ptr %6, align 8
  %40 = getelementptr inbounds nuw %struct.SDL_TimerMap, ptr %39, i32 0, i32 2
  %41 = load ptr, ptr %40, align 8
  %42 = load ptr, ptr %4, align 8
  %43 = getelementptr inbounds nuw %struct.SDL_TimerData, ptr %42, i32 0, i32 2
  store ptr %41, ptr %43, align 8
  br label %44

44:                                               ; preds = %38, %32
  br label %51

45:                                               ; preds = %23
  br label %46

46:                                               ; preds = %45
  %47 = load ptr, ptr %6, align 8
  store ptr %47, ptr %5, align 8
  %48 = load ptr, ptr %6, align 8
  %49 = getelementptr inbounds nuw %struct.SDL_TimerMap, ptr %48, i32 0, i32 2
  %50 = load ptr, ptr %49, align 8
  store ptr %50, ptr %6, align 8
  br label %20, !llvm.loop !9

51:                                               ; preds = %44, %20
  %52 = load ptr, ptr %4, align 8
  %53 = getelementptr inbounds nuw %struct.SDL_TimerData, ptr %52, i32 0, i32 3
  %54 = load ptr, ptr %53, align 8
  call void @SDL_UnlockMutex_REAL(ptr noundef %54)
  %55 = load ptr, ptr %6, align 8
  %56 = icmp ne ptr %55, null
  br i1 %56, label %57, label %72

57:                                               ; preds = %51
  %58 = load ptr, ptr %6, align 8
  %59 = getelementptr inbounds nuw %struct.SDL_TimerMap, ptr %58, i32 0, i32 1
  %60 = load ptr, ptr %59, align 8
  %61 = getelementptr inbounds nuw %struct.SDL_Timer, ptr %60, i32 0, i32 6
  %62 = call i32 @SDL_GetAtomicInt_REAL(ptr noundef %61)
  %63 = icmp ne i32 %62, 0
  br i1 %63, label %70, label %64

64:                                               ; preds = %57
  %65 = load ptr, ptr %6, align 8
  %66 = getelementptr inbounds nuw %struct.SDL_TimerMap, ptr %65, i32 0, i32 1
  %67 = load ptr, ptr %66, align 8
  %68 = getelementptr inbounds nuw %struct.SDL_Timer, ptr %67, i32 0, i32 6
  %69 = call i32 @SDL_SetAtomicInt_REAL(ptr noundef %68, i32 noundef 1)
  store i8 1, ptr %7, align 1
  br label %70

70:                                               ; preds = %64, %57
  %71 = load ptr, ptr %6, align 8
  call void @SDL_free_REAL(ptr noundef %71)
  br label %72

72:                                               ; preds = %70, %51
  %73 = load i8, ptr %7, align 1, !range !10, !noundef !11
  %74 = trunc i8 %73 to i1
  br i1 %74, label %75, label %76

75:                                               ; preds = %72
  store i1 true, ptr %2, align 1
  store i32 1, ptr %8, align 4
  br label %78

76:                                               ; preds = %72
  %77 = call zeroext i1 (ptr, ...) @SDL_SetError_REAL(ptr noundef @.str.3)
  store i1 %77, ptr %2, align 1
  store i32 1, ptr %8, align 4
  br label %78

78:                                               ; preds = %76, %75, %11
  call void @llvm.lifetime.end.p0(i64 1, ptr %7) #3
  call void @llvm.lifetime.end.p0(i64 8, ptr %6) #3
  call void @llvm.lifetime.end.p0(i64 8, ptr %5) #3
  call void @llvm.lifetime.end.p0(i64 8, ptr %4) #3
  %79 = load i1, ptr %2, align 1
  ret i1 %79
}