; Function Attrs: nounwind uwtable
define hidden zeroext i1 @SDL_RemoveTimer_REAL(i32 noundef %0) local_unnamed_addr #0 {
  %.not = icmp eq i32 %0, 0
  br i1 %.not, label %2, label %4

2:                                                ; preds = %1
  %3 = tail call zeroext i1 (ptr, ...) @SDL_SetError_REAL(ptr noundef nonnull @.str.1, ptr noundef nonnull @.str.2) #3
  br label %28

4:                                                ; preds = %1
  %5 = load ptr, ptr getelementptr inbounds nuw (i8, ptr @SDL_timer_data, i64 40), align 8
  tail call void @SDL_LockMutex_REAL(ptr noundef %5) #3
  %.01931 = load ptr, ptr getelementptr inbounds nuw (i8, ptr @SDL_timer_data, i64 32), align 8
  %.not2332 = icmp eq ptr %.01931, null
  br i1 %.not2332, label %.critedge, label %.lr.ph.preheader

.lr.ph.preheader:                                 ; preds = %4
  %6 = load i32, ptr %.01931, align 8
  %7 = icmp eq i32 %6, %0
  br i1 %7, label %.lr.ph._crit_edge, label %.lr.ph42

.lr.ph:                                           ; preds = %.lr.ph42
  %8 = load i32, ptr %.019, align 8
  %9 = icmp eq i32 %8, %0
  br i1 %9, label %.lr.ph._crit_edge, label %.lr.ph42, !llvm.loop !10

.lr.ph._crit_edge:                                ; preds = %.lr.ph, %.lr.ph.preheader
  %.01934.lcssa = phi ptr [ %.01931, %.lr.ph.preheader ], [ %.019, %.lr.ph ]
  %.02033.lcssa = phi ptr [ null, %.lr.ph.preheader ], [ %.0193441, %.lr.ph ]
  %.not24 = icmp eq ptr %.02033.lcssa, null
  %10 = getelementptr inbounds nuw i8, ptr %.01934.lcssa, i64 16
  %11 = load ptr, ptr %10, align 8
  br i1 %.not24, label %14, label %12

12:                                               ; preds = %.lr.ph._crit_edge
  %13 = getelementptr inbounds nuw i8, ptr %.02033.lcssa, i64 16
  store ptr %11, ptr %13, align 8
  br label %16

14:                                               ; preds = %.lr.ph._crit_edge
  store ptr %11, ptr getelementptr inbounds nuw (i8, ptr @SDL_timer_data, i64 32), align 8
  br label %16

.lr.ph42:                                         ; preds = %.lr.ph.preheader, %.lr.ph
  %.0193441 = phi ptr [ %.019, %.lr.ph ], [ %.01931, %.lr.ph.preheader ]
  %15 = getelementptr inbounds nuw i8, ptr %.0193441, i64 16
  %.019 = load ptr, ptr %15, align 8
  %.not23 = icmp eq ptr %.019, null
  br i1 %.not23, label %.critedge, label %.lr.ph, !llvm.loop !10

16:                                               ; preds = %14, %12
  %17 = load ptr, ptr getelementptr inbounds nuw (i8, ptr @SDL_timer_data, i64 40), align 8
  tail call void @SDL_UnlockMutex_REAL(ptr noundef %17) #3
  %18 = getelementptr inbounds nuw i8, ptr %.01934.lcssa, i64 8
  %19 = load ptr, ptr %18, align 8
  %20 = getelementptr inbounds nuw i8, ptr %19, i64 48
  %21 = tail call i32 @SDL_GetAtomicInt_REAL(ptr noundef nonnull %20) #3
  %.not25 = icmp eq i32 %21, 0
  br i1 %.not25, label %22, label %.critedge27.critedge

22:                                               ; preds = %16
  %23 = load ptr, ptr %18, align 8
  %24 = getelementptr inbounds nuw i8, ptr %23, i64 48
  %25 = tail call i32 @SDL_SetAtomicInt_REAL(ptr noundef nonnull %24, i32 noundef 1) #3
  tail call void @SDL_free_REAL(ptr noundef nonnull %.01934.lcssa) #3
  br label %28

.critedge:                                        ; preds = %.lr.ph42, %4
  %26 = load ptr, ptr getelementptr inbounds nuw (i8, ptr @SDL_timer_data, i64 40), align 8
  tail call void @SDL_UnlockMutex_REAL(ptr noundef %26) #3
  br label %.critedge27

.critedge27.critedge:                             ; preds = %16
  tail call void @SDL_free_REAL(ptr noundef nonnull %.01934.lcssa) #3
  br label %.critedge27

.critedge27:                                      ; preds = %.critedge27.critedge, %.critedge
  %27 = tail call zeroext i1 (ptr, ...) @SDL_SetError_REAL(ptr noundef nonnull @.str.3) #3
  br label %28

28:                                               ; preds = %22, %.critedge27, %2
  %.021 = phi i1 [ %27, %.critedge27 ], [ %3, %2 ], [ true, %22 ]
  ret i1 %.021
}